; Function Attrs: mustprogress uwtable
define noundef nonnull align 8 dereferenceable(24) ptr @_ZN5arrow11StringTypesEv() local_unnamed_addr #1 personality ptr @__gxx_personality_v0 {
  %1 = alloca [2 x %"class.std::shared_ptr"], align 8
  %2 = alloca %"class.std::allocator.48", align 1
  %3 = load atomic i8, ptr @_ZGVZN5arrow11StringTypesEvE5types acquire, align 8
  %4 = icmp eq i8 %3, 0
  br i1 %4, label %5, label %44, !prof !2075

5:                                                ; preds = %0
  %6 = tail call i32 @__cxa_guard_acquire(ptr nonnull @_ZGVZN5arrow11StringTypesEvE5types) #38
  %.not = icmp eq i32 %6, 0
  br i1 %.not, label %44, label %7

7:                                                ; preds = %5
  call void @llvm.lifetime.start.p0(i64 32, ptr nonnull %1) #38
  %8 = invoke noundef nonnull align 8 dereferenceable(16) ptr @_ZN5arrow4utf8Ev()
          to label %10 unwind label %.thread

.thread:                                          ; preds = %7
  %9 = landingpad { ptr, i32 }
          cleanup
  br label %.loopexit

10:                                               ; preds = %7
  %11 = load ptr, ptr @_ZZN5arrow4utf8EvE6result, align 8, !tbaa !333
  store ptr %11, ptr %1, align 8, !tbaa !333
  %12 = getelementptr inbounds nuw i8, ptr %1, i64 8
  %13 = load ptr, ptr getelementptr inbounds nuw (i8, ptr @_ZZN5arrow4utf8EvE6result, i64 8), align 8, !tbaa !352
  store ptr %13, ptr %12, align 8, !tbaa !352
  %.not.i.i.i = icmp eq ptr %13, null
  br i1 %.not.i.i.i, label %_ZNSt10shared_ptrIN5arrow8DataTypeEEC2ERKS2_.exit, label %14

14:                                               ; preds = %10
  %15 = getelementptr inbounds nuw i8, ptr %13, i64 8
  %16 = load i8, ptr @__libc_single_threaded, align 1, !tbaa !42
  %.not.i.i.i.i = icmp eq i8 %16, 0
  br i1 %.not.i.i.i.i, label %20, label %17

17:                                               ; preds = %14
  %18 = load i32, ptr %15, align 4, !tbaa !358
  %19 = add nsw i32 %18, 1
  store i32 %19, ptr %15, align 4, !tbaa !358
  br label %_ZNSt10shared_ptrIN5arrow8DataTypeEEC2ERKS2_.exit

20:                                               ; preds = %14
  %21 = atomicrmw volatile add ptr %15, i32 1 acq_rel, align 4
  br label %_ZNSt10shared_ptrIN5arrow8DataTypeEEC2ERKS2_.exit

_ZNSt10shared_ptrIN5arrow8DataTypeEEC2ERKS2_.exit: ; preds = %10, %17, %20
  %22 = invoke noundef nonnull align 8 dereferenceable(16) ptr @_ZN5arrow10large_utf8Ev()
          to label %23 unwind label %.loopexit.loopexit11

23:                                               ; preds = %_ZNSt10shared_ptrIN5arrow8DataTypeEEC2ERKS2_.exit
  %24 = getelementptr inbounds nuw i8, ptr %1, i64 16
  %25 = load ptr, ptr @_ZZN5arrow10large_utf8EvE6result, align 8, !tbaa !333
  store ptr %25, ptr %24, align 8, !tbaa !333
  %26 = getelementptr inbounds nuw i8, ptr %1, i64 24
  %27 = load ptr, ptr getelementptr inbounds nuw (i8, ptr @_ZZN5arrow10large_utf8EvE6result, i64 8), align 8, !tbaa !352
  store ptr %27, ptr %26, align 8, !tbaa !352
  %.not.i.i.i6 = icmp eq ptr %27, null
  br i1 %.not.i.i.i6, label %_ZNSt10shared_ptrIN5arrow8DataTypeEEC2ERKS2_.exit8, label %28

28:                                               ; preds = %23
  %29 = getelementptr inbounds nuw i8, ptr %27, i64 8
  %30 = load i8, ptr @__libc_single_threaded, align 1, !tbaa !42
  %.not.i.i.i.i7 = icmp eq i8 %30, 0
  br i1 %.not.i.i.i.i7, label %34, label %31

31:                                               ; preds = %28
  %32 = load i32, ptr %29, align 4, !tbaa !358
  %33 = add nsw i32 %32, 1
  store i32 %33, ptr %29, align 4, !tbaa !358
  br label %_ZNSt10shared_ptrIN5arrow8DataTypeEEC2ERKS2_.exit8

34:                                               ; preds = %28
  %35 = atomicrmw volatile add ptr %29, i32 1 acq_rel, align 4
  br label %_ZNSt10shared_ptrIN5arrow8DataTypeEEC2ERKS2_.exit8

_ZNSt10shared_ptrIN5arrow8DataTypeEEC2ERKS2_.exit8: ; preds = %23, %31, %34
  call void @llvm.lifetime.start.p0(i64 1, ptr nonnull %2) #38
  invoke void @_ZNSt6vectorISt10shared_ptrIN5arrow8DataTypeEESaIS3_EEC2ESt16initializer_listIS3_ERKS4_(ptr noundef nonnull align 8 dereferenceable(24) @_ZZN5arrow11StringTypesEvE5types, ptr nonnull %1, i64 2, ptr noundef nonnull align 1 dereferenceable(1) %2)
          to label %36 unwind label %46

36:                                               ; preds = %_ZNSt10shared_ptrIN5arrow8DataTypeEEC2ERKS2_.exit8
  call void @llvm.lifetime.end.p0(i64 1, ptr nonnull %2) #38
  %37 = getelementptr inbounds nuw i8, ptr %1, i64 32
  br label %38

38:                                               ; preds = %38, %36
  %39 = phi ptr [ %37, %36 ], [ %40, %38 ]
  %40 = getelementptr inbounds i8, ptr %39, i64 -16
  call void @_ZNSt12__shared_ptrIN5arrow8DataTypeELN9__gnu_cxx12_Lock_policyE2EED2Ev(ptr noundef nonnull align 8 dereferenceable(16) %40) #38
  %41 = icmp eq ptr %40, %1
  br i1 %41, label %42, label %38

42:                                               ; preds = %38
  call void @llvm.lifetime.end.p0(i64 32, ptr nonnull %1) #38
  %43 = call i32 @__cxa_atexit(ptr nonnull @_ZNSt6vectorISt10shared_ptrIN5arrow8DataTypeEESaIS3_EED2Ev, ptr nonnull @_ZZN5arrow11StringTypesEvE5types, ptr nonnull @__dso_handle) #38
  call void @__cxa_guard_release(ptr nonnull @_ZGVZN5arrow11StringTypesEvE5types) #38
  br label %44

44:                                               ; preds = %42, %5, %0
  ret ptr @_ZZN5arrow11StringTypesEvE5types

.loopexit.loopexit11:                             ; preds = %_ZNSt10shared_ptrIN5arrow8DataTypeEEC2ERKS2_.exit
  %45 = landingpad { ptr, i32 }
          cleanup
  call void @_ZNSt12__shared_ptrIN5arrow8DataTypeELN9__gnu_cxx12_Lock_policyE2EED2Ev(ptr noundef nonnull align 8 dereferenceable(16) %1) #38
  br label %.loopexit

46:                                               ; preds = %_ZNSt10shared_ptrIN5arrow8DataTypeEEC2ERKS2_.exit8
  %47 = landingpad { ptr, i32 }
          cleanup
  call void @llvm.lifetime.end.p0(i64 1, ptr nonnull %2) #38
  %48 = getelementptr inbounds nuw i8, ptr %1, i64 32
  br label %49

49:                                               ; preds = %49, %46
  %50 = phi ptr [ %48, %46 ], [ %51, %49 ]
  %51 = getelementptr inbounds i8, ptr %50, i64 -16
  call void @_ZNSt12__shared_ptrIN5arrow8DataTypeELN9__gnu_cxx12_Lock_policyE2EED2Ev(ptr noundef nonnull align 8 dereferenceable(16) %51) #38
  %52 = icmp eq ptr %51, %1
  br i1 %52, label %.loopexit, label %49

.loopexit:                                        ; preds = %49, %.loopexit.loopexit11, %.thread
  %.pn = phi { ptr, i32 } [ %9, %.thread ], [ %45, %.loopexit.loopexit11 ], [ %47, %49 ]
  call void @llvm.lifetime.end.p0(i64 32, ptr nonnull %1) #38
  call void @__cxa_guard_abort(ptr nonnull @_ZGVZN5arrow11StringTypesEvE5types) #38
  resume { ptr, i32 } %.pn
}